; Function Attrs: mustprogress uwtable
define hidden noundef zeroext i1 @_ZN4lean11is_borrowedERKNS_4exprE(ptr noundef nonnull readonly align 8 captures(none) dereferenceable(8) %0) local_unnamed_addr #0 personality ptr @__gxx_personality_v0 {
  %2 = alloca %"class.lean::expr", align 8
  call void @llvm.lifetime.start.p0(i64 8, ptr nonnull %2) #8
  %3 = load ptr, ptr %0, align 8, !tbaa !8
  store ptr %3, ptr %2, align 8, !tbaa !8
  %4 = ptrtoint ptr %3 to i64
  %5 = and i64 %4, 1
  %.not.i.i.i = icmp eq i64 %5, 0
  br i1 %.not.i.i.i, label %6, label %_ZN4lean4exprC2ERKS0_.exit

6:                                                ; preds = %1
  %.val.i.i.i.i = load i32, ptr %3, align 4, !tbaa !10
  %7 = icmp sgt i32 %.val.i.i.i.i, 0
  br i1 %7, label %8, label %10, !prof !13

8:                                                ; preds = %6
  %9 = add nuw nsw i32 %.val.i.i.i.i, 1
  store i32 %9, ptr %3, align 4, !tbaa !10
  br label %_ZN4lean4exprC2ERKS0_.exit

10:                                               ; preds = %6
  %.not.i.i.i.i = icmp eq i32 %.val.i.i.i.i, 0
  br i1 %.not.i.i.i.i, label %_ZN4lean4exprC2ERKS0_.exit, label %11

11:                                               ; preds = %10
  tail call void @lean_inc_ref_cold(ptr noundef nonnull %3)
  br label %_ZN4lean4exprC2ERKS0_.exit

_ZN4lean4exprC2ERKS0_.exit:                       ; preds = %1, %8, %10, %11
  %12 = load ptr, ptr @_ZN4leanL10g_borrowedE, align 8, !tbaa !3
  %13 = invoke noundef zeroext i1 @_ZN4lean13is_annotationERKNS_4exprERKNS_4nameE(ptr noundef nonnull align 8 dereferenceable(8) %2, ptr noundef nonnull align 8 dereferenceable(8) %12)
          to label %14 unwind label %44

14:                                               ; preds = %_ZN4lean4exprC2ERKS0_.exit
  br i1 %13, label %29, label %15

15:                                               ; preds = %14
  %16 = load ptr, ptr %2, align 8, !tbaa !8
  %17 = ptrtoint ptr %16 to i64
  %18 = and i64 %17, 1
  %.not.i.i = icmp eq i64 %18, 0
  br i1 %.not.i.i, label %19, label %_ZNK4lean10object_ref10to_obj_argEv.exit

19:                                               ; preds = %15
  %.val.i.i.i = load i32, ptr %16, align 4, !tbaa !10
  %20 = icmp sgt i32 %.val.i.i.i, 0
  br i1 %20, label %21, label %23, !prof !13

21:                                               ; preds = %19
  %22 = add nuw nsw i32 %.val.i.i.i, 1
  store i32 %22, ptr %16, align 4, !tbaa !10
  br label %_ZNK4lean10object_ref10to_obj_argEv.exit

23:                                               ; preds = %19
  %.not.i.i.i2 = icmp eq i32 %.val.i.i.i, 0
  br i1 %.not.i.i.i2, label %_ZNK4lean10object_ref10to_obj_argEv.exit, label %24

24:                                               ; preds = %23
  invoke void @lean_inc_ref_cold(ptr noundef nonnull %16)
          to label %.noexc unwind label %44

.noexc:                                           ; preds = %24
  %.pre.i = load ptr, ptr %2, align 8, !tbaa !8
  br label %_ZNK4lean10object_ref10to_obj_argEv.exit

_ZNK4lean10object_ref10to_obj_argEv.exit:         ; preds = %.noexc, %23, %21, %15
  %25 = phi ptr [ %16, %15 ], [ %16, %21 ], [ %16, %23 ], [ %.pre.i, %.noexc ]
  %26 = invoke zeroext i8 @lean_is_marked_borrowed(ptr noundef %25)
          to label %27 unwind label %44

27:                                               ; preds = %_ZNK4lean10object_ref10to_obj_argEv.exit
  %28 = icmp ne i8 %26, 0
  br label %29

29:                                               ; preds = %27, %14
  %30 = phi i1 [ true, %14 ], [ %28, %27 ]
  %31 = load ptr, ptr %2, align 8, !tbaa !8
  %32 = ptrtoint ptr %31 to i64
  %33 = and i64 %32, 1
  %.not.i.i3 = icmp eq i64 %33, 0
  br i1 %.not.i.i3, label %34, label %_ZN4lean10object_refD2Ev.exit

34:                                               ; preds = %29
  %35 = load i32, ptr %31, align 4, !tbaa !10
  %36 = icmp sgt i32 %35, 1
  br i1 %36, label %37, label %39, !prof !13

37:                                               ; preds = %34
  %38 = add nsw i32 %35, -1
  store i32 %38, ptr %31, align 4, !tbaa !10
  br label %_ZN4lean10object_refD2Ev.exit

39:                                               ; preds = %34
  %.not.i.i.i4 = icmp eq i32 %35, 0
  br i1 %.not.i.i.i4, label %_ZN4lean10object_refD2Ev.exit, label %40

40:                                               ; preds = %39
  invoke void @lean_dec_ref_cold(ptr noundef nonnull %31)
          to label %_ZN4lean10object_refD2Ev.exit unwind label %41

41:                                               ; preds = %40
  %42 = landingpad { ptr, i32 }
          catch ptr null
  %43 = extractvalue { ptr, i32 } %42, 0
  call void @__clang_call_terminate(ptr %43) #9
  unreachable

_ZN4lean10object_refD2Ev.exit:                    ; preds = %29, %37, %39, %40
  call void @llvm.lifetime.end.p0(i64 8, ptr nonnull %2) #8
  ret i1 %30

44:                                               ; preds = %24, %_ZNK4lean10object_ref10to_obj_argEv.exit, %_ZN4lean4exprC2ERKS0_.exit
  %45 = landingpad { ptr, i32 }
          cleanup
  call void @_ZN4lean10object_refD2Ev(ptr noundef nonnull align 8 dereferenceable(8) %2) #8
  call void @llvm.lifetime.end.p0(i64 8, ptr nonnull %2) #8
  resume { ptr, i32 } %45
}